; ModuleID = '57/2512.c'
source_filename = "57/2512.c"
target datalayout = "e-m:e-p270:32:32-p271:32:32-p272:64:64-i64:64-f80:128-n8:16:32:64-S128"
target triple = "x86_64-pc-linux-gnu"

; Function Attrs: noinline nounwind uwtable
define dso_local i32 @main() #0 {
  %1 = alloca i32, align 4
  %2 = alloca i32, align 4
  %3 = alloca i32, align 4
  %4 = alloca i32, align 4
  %5 = alloca i32, align 4
  %6 = alloca i32, align 4
  %7 = alloca [33 x i8], align 16
  %8 = alloca [33 x [33 x i8]], align 16
  store i32 0, i32* %1, align 4
  %9 = getelementptr inbounds [33 x i8], [33 x i8]* %7, i64 0, i64 0
  %10 = call i32 (i8*, ...) bitcast (i32 (...)* @gets to i32 (i8*, ...)*)(i8* %9)
  %11 = getelementptr inbounds [33 x i8], [33 x i8]* %7, i64 0, i64 0
  %12 = call i32 @atoi(i8* %11) #3
  store i32 %12, i32* %6, align 4
  store i32 0, i32* %2, align 4
  br label %13

13:                                               ; preds = %23, %0
  %14 = load i32, i32* %2, align 4
  %15 = load i32, i32* %6, align 4
  %16 = icmp slt i32 %14, %15
  br i1 %16, label %17, label %26

17:                                               ; preds = %13
  %18 = load i32, i32* %2, align 4
  %19 = sext i32 %18 to i64
  %20 = getelementptr inbounds [33 x [33 x i8]], [33 x [33 x i8]]* %8, i64 0, i64 %19
  %21 = getelementptr inbounds [33 x i8], [33 x i8]* %20, i64 0, i64 0
  %22 = call i32 (i8*, ...) bitcast (i32 (...)* @gets to i32 (i8*, ...)*)(i8* %21)
  br label %23

23:                                               ; preds = %17
  %24 = load i32, i32* %2, align 4
  %25 = add nsw i32 %24, 1
  store i32 %25, i32* %2, align 4
  br label %13

26:                                               ; preds = %13
  store i32 0, i32* %2, align 4
  br label %27

27:                                               ; preds = %141, %26
  %28 = load i32, i32* %2, align 4
  %29 = load i32, i32* %6, align 4
  %30 = icmp slt i32 %28, %29
  br i1 %30, label %31, label %144

31:                                               ; preds = %27
  %32 = load i32, i32* %2, align 4
  %33 = sext i32 %32 to i64
  %34 = getelementptr inbounds [33 x [33 x i8]], [33 x [33 x i8]]* %8, i64 0, i64 %33
  %35 = getelementptr inbounds [33 x i8], [33 x i8]* %34, i64 0, i64 0
  %36 = call i64 @strlen(i8* %35) #3
  %37 = trunc i64 %36 to i32
  store i32 %37, i32* %5, align 4
  %38 = load i32, i32* %2, align 4
  %39 = sext i32 %38 to i64
  %40 = getelementptr inbounds [33 x [33 x i8]], [33 x [33 x i8]]* %8, i64 0, i64 %39
  %41 = load i32, i32* %5, align 4
  %42 = sub nsw i32 %41, 1
  %43 = sext i32 %42 to i64
  %44 = getelementptr inbounds [33 x i8], [33 x i8]* %40, i64 0, i64 %43
  %45 = load i8, i8* %44, align 1
  %46 = sext i8 %45 to i32
  %47 = icmp eq i32 %46, 103
  br i1 %47, label %48, label %78

48:                                               ; preds = %31
  %49 = load i32, i32* %2, align 4
  %50 = sext i32 %49 to i64
  %51 = getelementptr inbounds [33 x [33 x i8]], [33 x [33 x i8]]* %8, i64 0, i64 %50
  %52 = load i32, i32* %5, align 4
  %53 = sub nsw i32 %52, 2
  %54 = sext i32 %53 to i64
  %55 = getelementptr inbounds [33 x i8], [33 x i8]* %51, i64 0, i64 %54
  %56 = load i8, i8* %55, align 1
  %57 = sext i8 %56 to i32
  %58 = icmp eq i32 %57, 110
  br i1 %58, label %59, label %78

59:                                               ; preds = %48
  %60 = load i32, i32* %2, align 4
  %61 = sext i32 %60 to i64
  %62 = getelementptr inbounds [33 x [33 x i8]], [33 x [33 x i8]]* %8, i64 0, i64 %61
  %63 = load i32, i32* %5, align 4
  %64 = sub nsw i32 %63, 3
  %65 = sext i32 %64 to i64
  %66 = getelementptr inbounds [33 x i8], [33 x i8]* %62, i64 0, i64 %65
  %67 = load i8, i8* %66, align 1
  %68 = sext i8 %67 to i32
  %69 = icmp eq i32 %68, 105
  br i1 %69, label %70, label %78

70:                                               ; preds = %59
  %71 = load i32, i32* %2, align 4
  %72 = sext i32 %71 to i64
  %73 = getelementptr inbounds [33 x [33 x i8]], [33 x [33 x i8]]* %8, i64 0, i64 %72
  %74 = load i32, i32* %5, align 4
  %75 = sub nsw i32 %74, 3
  %76 = sext i32 %75 to i64
  %77 = getelementptr inbounds [33 x i8], [33 x i8]* %73, i64 0, i64 %76
  store i8 0, i8* %77, align 1
  br label %140

78:                                               ; preds = %59, %48, %31
  %79 = load i32, i32* %2, align 4
  %80 = sext i32 %79 to i64
  %81 = getelementptr inbounds [33 x [33 x i8]], [33 x [33 x i8]]* %8, i64 0, i64 %80
  %82 = load i32, i32* %5, align 4
  %83 = sub nsw i32 %82, 1
  %84 = sext i32 %83 to i64
  %85 = getelementptr inbounds [33 x i8], [33 x i8]* %81, i64 0, i64 %84
  %86 = load i8, i8* %85, align 1
  %87 = sext i8 %86 to i32
  %88 = icmp eq i32 %87, 114
  br i1 %88, label %89, label %108

89:                                               ; preds = %78
  %90 = load i32, i32* %2, align 4
  %91 = sext i32 %90 to i64
  %92 = getelementptr inbounds [33 x [33 x i8]], [33 x [33 x i8]]* %8, i64 0, i64 %91
  %93 = load i32, i32* %5, align 4
  %94 = sub nsw i32 %93, 2
  %95 = sext i32 %94 to i64
  %96 = getelementptr inbounds [33 x i8], [33 x i8]* %92, i64 0, i64 %95
  %97 = load i8, i8* %96, align 1
  %98 = sext i8 %97 to i32
  %99 = icmp eq i32 %98, 101
  br i1 %99, label %100, label %108

100:                                              ; preds = %89
  %101 = load i32, i32* %2, align 4
  %102 = sext i32 %101 to i64
  %103 = getelementptr inbounds [33 x [33 x i8]], [33 x [33 x i8]]* %8, i64 0, i64 %102
  %104 = load i32, i32* %5, align 4
  %105 = sub nsw i32 %104, 2
  %106 = sext i32 %105 to i64
  %107 = getelementptr inbounds [33 x i8], [33 x i8]* %103, i64 0, i64 %106
  store i8 0, i8* %107, align 1
  br label %139

108:                                              ; preds = %89, %78
  %109 = load i32, i32* %2, align 4
  %110 = sext i32 %109 to i64
  %111 = getelementptr inbounds [33 x [33 x i8]], [33 x [33 x i8]]* %8, i64 0, i64 %110
  %112 = load i32, i32* %5, align 4
  %113 = sub nsw i32 %112, 1
  %114 = sext i32 %113 to i64
  %115 = getelementptr inbounds [33 x i8], [33 x i8]* %111, i64 0, i64 %114
  %116 = load i8, i8* %115, align 1
  %117 = sext i8 %116 to i32
  %118 = icmp eq i32 %117, 121
  br i1 %118, label %119, label %138

119:                                              ; preds = %108
  %120 = load i32, i32* %2, align 4
  %121 = sext i32 %120 to i64
  %122 = getelementptr inbounds [33 x [33 x i8]], [33 x [33 x i8]]* %8, i64 0, i64 %121
  %123 = load i32, i32* %5, align 4
  %124 = sub nsw i32 %123, 2
  %125 = sext i32 %124 to i64
  %126 = getelementptr inbounds [33 x i8], [33 x i8]* %122, i64 0, i64 %125
  %127 = load i8, i8* %126, align 1
  %128 = sext i8 %127 to i32
  %129 = icmp eq i32 %128, 108
  br i1 %129, label %130, label %138

130:                                              ; preds = %119
  %131 = load i32, i32* %2, align 4
  %132 = sext i32 %131 to i64
  %133 = getelementptr inbounds [33 x [33 x i8]], [33 x [33 x i8]]* %8, i64 0, i64 %132
  %134 = load i32, i32* %5, align 4
  %135 = sub nsw i32 %134, 2
  %136 = sext i32 %135 to i64
  %137 = getelementptr inbounds [33 x i8], [33 x i8]* %133, i64 0, i64 %136
  store i8 0, i8* %137, align 1
  br label %138

138:                                              ; preds = %130, %119, %108
  br label %139

139:                                              ; preds = %138, %100
  br label %140

140:                                              ; preds = %139, %70
  br label %141

141:                                              ; preds = %140
  %142 = load i32, i32* %2, align 4
  %143 = add nsw i32 %142, 1
  store i32 %143, i32* %2, align 4
  br label %27

144:                                              ; preds = %27
  store i32 0, i32* %2, align 4
  br label %145

145:                                              ; preds = %155, %144
  %146 = load i32, i32* %2, align 4
  %147 = load i32, i32* %6, align 4
  %148 = icmp slt i32 %146, %147
  br i1 %148, label %149, label %158

149:                                              ; preds = %145
  %150 = load i32, i32* %2, align 4
  %151 = sext i32 %150 to i64
  %152 = getelementptr inbounds [33 x [33 x i8]], [33 x [33 x i8]]* %8, i64 0, i64 %151
  %153 = getelementptr inbounds [33 x i8], [33 x i8]* %152, i64 0, i64 0
  %154 = call i32 @puts(i8* %153)
  br label %155

155:                                              ; preds = %149
  %156 = load i32, i32* %2, align 4
  %157 = add nsw i32 %156, 1
  store i32 %157, i32* %2, align 4
  br label %145

158:                                              ; preds = %145
  ret i32 0
}

declare dso_local i32 @gets(...) #1

; Function Attrs: nounwind readonly
declare dso_local i32 @atoi(i8*) #2

; Function Attrs: nounwind readonly
declare dso_local i64 @strlen(i8*) #2

declare dso_local i32 @puts(i8*) #1


!llvm.module.flags = !{!0}
!llvm.ident = !{!1}

!0 = !{i32 1, !"wchar_size", i32 4}
!1 = !{!"clang version 10.0.0-4ubuntu1 "}
